(lp0
(S'/home/lucho/Desktop/Prodigy/The prodigy - Charley.mp3'
p1
VProdigy - Charley
p2
S'The prodigy - Charley.mp3'
p3
I329
tp4
a(S'/home/lucho/Desktop/Prodigy/Prodigy - Stand Up.mp3'
p5
VThe Prodigy - Stand Up
p6
S'Prodigy - Stand Up.mp3'
p7
I330
tp8
a(S'/home/lucho/Desktop/Prodigy/Prodigy - Girls.mp3'
p9
VProdigy - Girls
p10
S'Prodigy - Girls.mp3'
p11
I331
tp12
a(S'/home/lucho/Desktop/Prodigy/Fire-burning_version.mp3'
p13
VThe Prodigy - Fire (Burning version)
p14
S'Fire-burning_version.mp3'
p15
I332
tp16
a(S'/home/lucho/Desktop/Prodigy/prodigy - techno from the matrix.mp3'
p17
VProdigy - Minefield
p18
S'prodigy - techno from the matrix.mp3'
p19
I333
tp20
a(S'/home/lucho/Desktop/Prodigy/Prodigy - Diesel Power.mp3'
p21
VProdigy - Diesel Power
p22
S'Prodigy - Diesel Power.mp3'
p23
I334
tp24
a(S'/home/lucho/Desktop/Prodigy/Prodigy - Castil Road.mp3'
p25
VProdigy - 05. Castil Road
p26
S'Prodigy - Castil Road.mp3'
p27
I335
tp28
a(S'/home/lucho/Desktop/Prodigy/Prodigy - Thunder.mp3'
p29
VThe Prodigy - Thunder
p30
S'Prodigy - Thunder.mp3'
p31
I336
tp32
a(S'/home/lucho/Desktop/Prodigy/Prodigy and Tom Morello - One Man Army.mp3'
p33
VThe Prodigy and Tom Morello - One man army
p34
S'Prodigy and Tom Morello - One Man Army.mp3'
p35
I337
tp36
a(S'/home/lucho/Desktop/Prodigy/Prodigy - Hotride.mp3'
p37
VProdigy - Hotride
p38
S'Prodigy - Hotride.mp3'
p39
I338
tp40
a(S"/home/lucho/Desktop/Prodigy/Prodigy - Baby's Got A Temper.mp3"
p41
Vthe prodigy - Babys Got A Temper
p42
S"Prodigy - Baby's Got A Temper.mp3"
p43
I339
tp44
a(S'/home/lucho/Desktop/Prodigy/prodigy - mindfields.mp3'
p45
VThe Prodigy - Mindfields
p46
S'prodigy - mindfields.mp3'
p47
I340
tp48
a(S'/home/lucho/Desktop/Prodigy/prodigy - rock dat shit.mp3'
p49
VThe Prodigy - Rock Dat Shit
p50
S'prodigy - rock dat shit.mp3'
p51
I341
tp52
a(S'/home/lucho/Desktop/Prodigy/prodigy - narayan.mp3'
p53
VThe Prodigy - Narayan
p54
S'prodigy - narayan.mp3'
p55
I342
tp56
a(S'/home/lucho/Desktop/Prodigy/Prodigy_Fat-Of-The_Land_Track5.mp3'
p57
VThe Prodigy - Serial Thrilla
p58
S'Prodigy_Fat-Of-The_Land_Track5.mp3'
p59
I343
tp60
a(S'/home/lucho/Desktop/Prodigy/Prodigy - Smack my bitch up.mp3'
p61
VProdigy - Smack my bitch up
p62
S'Prodigy - Smack my bitch up.mp3'
p63
I344
tp64
a(S'/home/lucho/Desktop/Prodigy/Prodigy - Piranha.mp3'
p65
VThe Prodigy - Piranha
p66
S'Prodigy - Piranha.mp3'
p67
I345
tp68
a(S'/home/lucho/Desktop/Prodigy/Prodigy-Speedway.mp3'
p69
VThe Prodigy - Speedway
p70
S'Prodigy-Speedway.mp3'
p71
I346
tp72
a(S'/home/lucho/Desktop/Prodigy/Prodigy - Claustrophobic Sting.mp3'
p73
VThe Prodigy - Claustrophobic Sting
p74
S'Prodigy - Claustrophobic Sting.mp3'
p75
I347
tp76
a(S'/home/lucho/Desktop/Prodigy/Prodigy - Invaders Must Die.mp3'
p77
VThe Prodigy - Invaders Must Die
p78
S'Prodigy - Invaders Must Die.mp3'
p79
I348
tp80
a(S'/home/lucho/Desktop/Prodigy/Prodigy - Out Of Space.mp3'
p81
VProdigy - Out Of Space
p82
S'Prodigy - Out Of Space.mp3'
p83
I349
tp84
a(S'/home/lucho/Desktop/Prodigy/Prodigy - Disco To Face.mp3'
p85
VThe Prodigy - Disco To Face
p86
S'Prodigy - Disco To Face.mp3'
p87
I350
tp88
a(S'/home/lucho/Desktop/Prodigy/Prodigy - Their Law.mp3'
p89
VProdigy - Their Law
p90
S'Prodigy - Their Law.mp3'
p91
I351
tp92
a(S'/home/lucho/Desktop/Prodigy/Prodigy - Ruff In The Jungle Bizness.mp3'
p93
VThe Prodigy - Ruff in The Jungle Bizness
p94
S'Prodigy - Ruff In The Jungle Bizness.mp3'
p95
I352
tp96
a(S'/home/lucho/Desktop/Prodigy/Prodigy - Voodoo People.mp3'
p97
VProdigy - Voodoo People
p98
S'Prodigy - Voodoo People.mp3'
p99
I353
tp100
a(S'/home/lucho/Desktop/Prodigy/Prodigy - Mozart master mix.mp3'
p101
S'Prodigy - Mozart master mix.mp3'
p102
S'Prodigy - Mozart master mix.mp3'
p103
I354
tp104
a(S'/home/lucho/Desktop/Prodigy/Prodigy - Everybody In The Place.mp3'
p105
VThe Prodigy - Everybody In The Place
p106
S'Prodigy - Everybody In The Place.mp3'
p107
I355
tp108
a(S'/home/lucho/Desktop/Prodigy/Prodigy - The Way It.mp3'
p109
VProdigy - The Way It
p110
S'Prodigy - The Way It.mp3'
p111
I356
tp112
a(S'/home/lucho/Desktop/Prodigy/Prodigy - Warriors Dance.mp3'
p113
VThe Prodigy - Warriors Dance
p114
S'Prodigy - Warriors Dance.mp3'
p115
I357
tp116
a(S"/home/lucho/Desktop/Prodigy/Prodigy - Let's Go.mp3"
p117
VProdigy - Let's go
p118
S"Prodigy - Let's Go.mp3"
p119
I358
tp120
a(S'/home/lucho/Desktop/Prodigy/Prodigy - Take Me to the Hospital.mp3'
p121
VThe Prodigy - Take Me to the Hospital
p122
S'Prodigy - Take Me to the Hospital.mp3'
p123
I359
tp124
a(S'/home/lucho/Desktop/Prodigy/Prodigy - Wake Up Call.mp3'
p125
VProdigy - Wake Up Call
p126
S'Prodigy - Wake Up Call.mp3'
p127
I360
tp128
a(S'/home/lucho/Desktop/Prodigy/Prodigy- Fuel My Fire.mp3'
p129
VProdigy - Fuel My Fire
p130
S'Prodigy- Fuel My Fire.mp3'
p131
I361
tp132
a(S'/home/lucho/Desktop/Prodigy/Prodigy - Rat Poison.mp3'
p133
VThe Prodigy - Rat Poison
p134
S'Prodigy - Rat Poison.mp3'
p135
I362
tp136
a(S'/home/lucho/Desktop/Prodigy/Prodigy - Firestarter.mp3'
p137
VProdigy - Firestarter
p138
S'Prodigy - Firestarter.mp3'
p139
I363
tp140
a(S'/home/lucho/Desktop/Prodigy/Prodigy - Poison.mp3'
p141
VProdigy - Poison
p142
S'Prodigy - Poison.mp3'
p143
I364
tp144
a(S'/home/lucho/Desktop/Prodigy/Prodigy - Spitfire.mp3'
p145
VProdigy - Spitfire
p146
S'Prodigy - Spitfire.mp3'
p147
I365
tp148
a(S'/home/lucho/Desktop/Prodigy/Prodigy - Funky Shit.mp3'
p149
VThe Prodigy - Funky Shit
p150
S'Prodigy - Funky Shit.mp3'
p151
I366
tp152
a(S'/home/lucho/Desktop/Prodigy/Prodigy - Colours.mp3'
p153
VThe Prodigy - Colours
p154
S'Prodigy - Colours.mp3'
p155
I367
tp156
a(S'/home/lucho/Desktop/Prodigy/Prodigy - Serial Thrilla.mp3'
p157
VProdigy - 05 - Serial Thrilla
p158
S'Prodigy - Serial Thrilla.mp3'
p159
I368
tp160
a(S'/home/lucho/Desktop/Prodigy/Prodigy - Action Radar.mp3'
p161
VProdigy - Action Radar
p162
S'Prodigy - Action Radar.mp3'
p163
I369
tp164
a(S'/home/lucho/Desktop/Prodigy/Prodigy -  Collapse.mp3'
p165
VProdigy - 02. Collapse
p166
S'Prodigy -  Collapse.mp3'
p167
I370
tp168
a(S"/home/lucho/Desktop/Prodigy/Prodigy - You'll Be Under My Wheels.mp3"
p169
VProdigy - You'll Be Under My Wheels
p170
S"Prodigy - You'll Be Under My Wheels.mp3"
p171
I371
tp172
a(S'/home/lucho/Desktop/Prodigy/Prodigy - Phoenix.mp3'
p173
VProdigy - Phoenix
p174
S'Prodigy - Phoenix.mp3'
p175
I372
tp176
a(S'/home/lucho/Desktop/Prodigy/Prodigy - Get Up Get Off.mp3'
p177
VProdigy - Get Up Get Off
p178
S'Prodigy - Get Up Get Off.mp3'
p179
I373
tp180
a(S'/home/lucho/Desktop/Prodigy/Prodigy - Music Reach.mp3'
p181
VThe Prodigy - Music Reach
p182
S'Prodigy - Music Reach.mp3'
p183
I374
tp184
a(S'/home/lucho/Desktop/Prodigy/Prodigy - Crazy Man.mp3'
p185
VThe Prodigy - Crazy Man
p186
S'Prodigy - Crazy Man.mp3'
p187
I375
tp188
a(S"/home/lucho/Desktop/Prodigy/Prodigy - Medusa's Path.mp3"
p189
VProdigy - Medusa's Path
p190
S"Prodigy - Medusa's Path.mp3"
p191
I376
tp192
a(S'/home/lucho/Desktop/Prodigy/Prodigy - Run With the Wolves.mp3'
p193
VThe Prodigy - Run With the Wolves
p194
S'Prodigy - Run With the Wolves.mp3'
p195
I377
tp196
a(S'/home/lucho/Desktop/Prodigy/Prodigy - Hyperspeed (G-Force Part 2).mp3'
p197
VThe Prodigy - Hyperspeed (G-Force Part 2)
p198
S'Prodigy - Hyperspeed (G-Force Part 2).mp3'
p199
I378
tp200
a(S'/home/lucho/Desktop/Prodigy/Prodigy - Break & Enter.mp3'
p201
VThe Prodigy - Break & Enter
p202
S'Prodigy - Break & Enter.mp3'
p203
I379
tp204
a(S'/home/lucho/Desktop/Prodigy/Prodigy & 666 - Smack My Amokk Up.mp3'
p205
S'Prodigy & 666 - Smack My Amokk Up.mp3'
p206
S'Prodigy & 666 - Smack My Amokk Up.mp3'
p207
I380
tp208
a(S'/home/lucho/Desktop/Prodigy/Prodigy - G-Force Part 1.mp3'
p209
VThe Prodigy - G-Force Part 1
p210
S'Prodigy - G-Force Part 1.mp3'
p211
I381
tp212
a(S'/home/lucho/Desktop/Prodigy/Prodigy - Breathe.mp3'
p213
VProdigy - Breathe
p214
S'Prodigy - Breathe.mp3'
p215
I382
tp216
a(S'/home/lucho/Desktop/Prodigy/Prodigy - 144.mp3'
p217
VProdigy - 03. 144
p218
S'Prodigy - 144.mp3'
p219
I383
tp220
a(S'/home/lucho/Desktop/Prodigy/prodigy - the trick.mp3'
p221
VThe Prodigy - The Trick
p222
S'prodigy - the trick.mp3'
p223
I384
tp224
a(S'/home/lucho/Desktop/Prodigy/prodigy - full throttle.mp3'
p225
VThe Prodigy - Full Throttle
p226
S'prodigy - full throttle.mp3'
p227
I385
tp228
a(S'/home/lucho/Desktop/Prodigy/Prodigy - Memphis Bells.mp3'
p229
VProdigy - Memphis Bells
p230
S'Prodigy - Memphis Bells.mp3'
p231
I386
tp232
a(S'/home/lucho/Desktop/Prodigy/Prodigy - Fire.mp3'
p233
VThe Prodigy - Fire
p234
S'Prodigy - Fire.mp3'
p235
I387
tp236
a(S'/home/lucho/Desktop/Prodigy/Prodigy - No Good.mp3'
p237
VProdigy - No good (start the dance)
p238
S'Prodigy - No Good.mp3'
p239
I388
tp240
a(S'/home/lucho/Desktop/Prodigy/prodigy - weather experience.mp3'
p241
VThe Prodigy - Weather Experience
p242
S'prodigy - weather experience.mp3'
p243
I389
tp244
a(S'/home/lucho/Desktop/Prodigy/Prodigy - One love.mp3'
p245
VProdigy - One love
p246
S'Prodigy - One love.mp3'
p247
I390
tp248
a(S'/home/lucho/Desktop/Prodigy/Prodigy - Jericho.mp3'
p249
VProdigy - Jericho
p250
S'Prodigy - Jericho.mp3'
p251
I391
tp252
a(S'/home/lucho/Desktop/Prodigy/Prodigy_Fat-Of-The_Land_Track10.mp3'
p253
VThe Prodigy - Fuel My Fire
p254
S'Prodigy_Fat-Of-The_Land_Track10.mp3'
p255
I392
tp256
a(S'/home/lucho/Desktop/Prodigy/Prodigy - Junky,s Cinder.mp3'
p257
VProdigy - 11. Junky's Cinder
p258
S'Prodigy - Junky,s Cinder.mp3'
p259
I393
tp260
a(S'/home/lucho/Desktop/Prodigy/Prodigy - Rip Up The Sound System.mp3'
p261
VThe Prodigy - Rip Up The Sound Sys
p262
S'Prodigy - Rip Up The Sound System.mp3'
p263
I394
tp264
a(S'/home/lucho/Desktop/Prodigy/Prodigy - Wind It Up.mp3'
p265
VProdigy - Wind It Up
p266
S'Prodigy - Wind It Up.mp3'
p267
I395
tp268
a(S'/home/lucho/Desktop/Prodigy/Prodigy - We Are The Ruffest.mp3'
p269
VThe Prodigy - We Are The Ruffest
p270
S'Prodigy - We Are The Ruffest.mp3'
p271
I396
tp272
a(S'/home/lucho/Desktop/Prodigy/Prodigy- Narayan.mp3'
p273
VProdigy - Narayan
p274
S'Prodigy- Narayan.mp3'
p275
I397
tp276
a(S'/home/lucho/Desktop/Prodigy/prodigy - you can never feel my pain.mp3'
p277
VProdigy - You Can Never Feel My Pain
p278
S'prodigy - you can never feel my pain.mp3'
p279
I398
tp280
a(S'/home/lucho/Desktop/Prodigy/Prodigy - Climbatize.mp3'
p281
VThe Prodigy - Climbatize
p282
S'Prodigy - Climbatize.mp3'
p283
I399
tp284
a(S'/home/lucho/Desktop/Prodigy/Prodigy - We Gonna Rock.mp3'
p285
VThe Prodigy - We Gonna Rock
p286
S'Prodigy - We Gonna Rock.mp3'
p287
I400
tp288
a(S'/home/lucho/Desktop/Prodigy/Prodigy - Made In 2 Minutes.mp3'
p289
VThe Prodigy - Made In 2 Minutes
p290
S'Prodigy - Made In 2 Minutes.mp3'
p291
I401
tp292
a(S'/home/lucho/Desktop/Prodigy/Prodigy - Shoot Down.mp3'
p293
VProdigy - Shoot Down
p294
S'Prodigy - Shoot Down.mp3'
p295
I402
tp296
a(S'/home/lucho/Desktop/Prodigy/Prodigy - Omen.mp3'
p297
VThe Prodigy - Omen
p298
S'Prodigy - Omen.mp3'
p299
I403
tp300
a(S'/home/lucho/Desktop/Prodigy/Prodigy.mp3'
p301
VThe Prodigy & Tom Morello - One Man Army
p302
S'Prodigy.mp3'
p303
I404
tp304
a(S'/home/lucho/Desktop/Prodigy/prodigy - skit.mp3'
p305
VProdigy - Trials Of Love (Skit)
p306
S'prodigy - skit.mp3'
p307
I405
tp308
a(S'/home/lucho/Desktop/Prodigy/prodigy - what u rep.mp3'
p309
VProdigy - What U Rep
p310
S'prodigy - what u rep.mp3'
p311
I406
tp312
a(S"/home/lucho/Desktop/Prodigy/Prodigy - World's On Fire.mp3"
p313
VThe Prodigy - World's On Fire
p314
S"Prodigy - World's On Fire.mp3"
p315
I407
tp316
a(S'/home/lucho/Desktop/Prodigy/prodigy - 3 kilos.mp3'
p317
VThe Prodigy - 3 Kilos
p318
S'prodigy - 3 kilos.mp3'
p319
I408
tp320
a(S'/home/lucho/Desktop/Prodigy/Prodigy - Your love.mp3'
p321
VProdigy - Your love
p322
S'Prodigy - Your love.mp3'
p323
I409
tp324
a(S'http://80.72.68.217/nova.ogg'
p325
S'nova.ogg'
p326
g325
I410
tp327
a(S"/home/lucho/Desktop/Chemical Brothers - Block Rockin' Beats.wav"
p328
S"Chemical Brothers - Block Rockin' Beats.wav"
p329
S"Chemical Brothers - Block Rockin' Beats.wav"
p330
I412
tp331
a(S'/home/lucho/Desktop/royksopp - Eple.mp3'
p332
VRoyksopp - Eple
p333
S'royksopp - Eple.mp3'
p334
I414
tp335
aI100
aS'/home/lucho/Desktop'
p336
a.